target datalayout = "e-m:e-p270:32:32-p271:32:32-p272:64:64-i64:64-i128:128-f80:128-n8:16:32:64-S128"
target triple = "x86_64-pc-linux-gnu"

%struct.SDL_VideoDevice = type { ptr, ptr, ptr, ptr, ptr, ptr, ptr, ptr, ptr, ptr, ptr, ptr, ptr, ptr, ptr, ptr, ptr, ptr, ptr, ptr, ptr, ptr, ptr, ptr, ptr, ptr, ptr, ptr, ptr, ptr, ptr, ptr, ptr, ptr, ptr, ptr, ptr, ptr, ptr, ptr, ptr, ptr, ptr, ptr, ptr, ptr, ptr, ptr, ptr, ptr, ptr, ptr, ptr, ptr, ptr, ptr, ptr, ptr, ptr, ptr, ptr, ptr, ptr, ptr, ptr, ptr, ptr, ptr, ptr, ptr, ptr, ptr, ptr, ptr, ptr, ptr, ptr, ptr, ptr, ptr, ptr, ptr, ptr, ptr, ptr, ptr, ptr, ptr, ptr, ptr, ptr, ptr, ptr, ptr, ptr, ptr, ptr, i64, i8, i8, i8, ptr, i32, ptr, %struct.SDL_Rect, ptr, ptr, i32, ptr, ptr, ptr, ptr, i64, ptr, i8, i32, i32, %struct.anon, ptr, ptr, ptr, ptr, ptr, ptr, %struct.SDL_AtomicInt, %struct.SDL_AtomicInt, i8, %struct.anon.0, ptr, ptr, ptr, ptr, ptr }
%struct.SDL_Rect = type { i32, i32, i32, i32 }
%struct.anon = type { i32, i32, i32, i32, i32, i32, i32, i32, i32, i32, i32, i32, i32, i32, i32, i32, i32, i32, i32, i32, i32, i32, i32, i32, i32, i32, i32, i32, i32, [256 x i8], ptr }
%struct.SDL_AtomicInt = type { i32 }
%struct.anon.0 = type { ptr, ptr, i32, [256 x i8], ptr }
%struct.SDL_VideoData = type { ptr, ptr, i32, ptr, i64, i32, ptr, i32, i64, i64, %struct.X11_ClipboardData, %struct.X11_ClipboardData, ptr, i64, %struct.X11_SettingsData, i8, %struct.anon.1, [256 x i32], i8, i8, i8, i64, i8, %struct.SDL_Point, i32, ptr, i32, i8, i32, %struct.anon.2, i8, i64, ptr, ptr, i8, i8, i8 }
%struct.X11_ClipboardData = type { ptr, ptr, ptr, i64, i32 }
%struct.X11_SettingsData = type { ptr }
%struct.anon.1 = type { i64, i64, i64, i64, i64, i64, i64, i64, i64, i64, i64, i64, i64, i64, i64, i64, i64, i64, i64, i64, i64, i64, i64, i64, i64, i64, i64, i64, i64, i64, i64, i64, i64, i64, i64, i64, i64, i64, i64, i64, i64, i64, i64, i64, i64, i64, i64, i64, i64, i64, i64, i64, i64 }
%struct.SDL_Point = type { i32, i32 }
%struct.anon.2 = type { ptr, i32, i32, i32, i16, i32, i32 }

@X11_XResetScreenSaver = external global ptr, align 8
@SDL_X11_HAVE_XSS = external global i32, align 4
@X11_XScreenSaverQueryExtension = external global ptr, align 8
@X11_XScreenSaverQueryVersion = external global ptr, align 8
@.str.2 = private unnamed_addr constant [32 x i8] c"That operation is not supported\00", align 1
@X11_XScreenSaverSuspend = external global ptr, align 8

; Function Attrs: nounwind uwtable
define hidden zeroext i1 @X11_SuspendScreenSaver(ptr noundef %0) #0 {
  %2 = alloca i1, align 1
  %3 = alloca ptr, align 8
  %4 = alloca ptr, align 8
  %5 = alloca i32, align 4
  %6 = alloca i32, align 4
  %7 = alloca i32, align 4
  %8 = alloca i32, align 4
  store ptr %0, ptr %3, align 8
  call void @llvm.lifetime.start.p0(i64 8, ptr %4) #7
  %9 = load ptr, ptr %3, align 8
  %10 = getelementptr inbounds nuw %struct.SDL_VideoDevice, ptr %9, i32 0, i32 128
  %11 = load ptr, ptr %10, align 8
  store ptr %11, ptr %4, align 8
  call void @llvm.lifetime.start.p0(i64 4, ptr %5) #7
  call void @llvm.lifetime.start.p0(i64 4, ptr %6) #7
  call void @llvm.lifetime.start.p0(i64 4, ptr %7) #7
  %12 = load ptr, ptr %3, align 8
  %13 = getelementptr inbounds nuw %struct.SDL_VideoDevice, ptr %12, i32 0, i32 100
  %14 = load i8, ptr %13, align 2, !range !3, !noundef !4
  %15 = trunc i8 %14 to i1
  %16 = call zeroext i1 @SDL_DBus_ScreensaverInhibit(i1 noundef zeroext %15)
  br i1 %16, label %17, label %18

17:                                               ; preds = %1
  store i1 true, ptr %2, align 1
  store i32 1, ptr %8, align 4
  br label %69

18:                                               ; preds = %1
  %19 = load ptr, ptr %3, align 8
  %20 = getelementptr inbounds nuw %struct.SDL_VideoDevice, ptr %19, i32 0, i32 100
  %21 = load i8, ptr %20, align 2, !range !3, !noundef !4
  %22 = trunc i8 %21 to i1
  br i1 %22, label %23, label %24

23:                                               ; preds = %18
  call void @SDL_DBus_ScreensaverTickle()
  br label %24

24:                                               ; preds = %23, %18
  %25 = load i32, ptr @SDL_X11_HAVE_XSS, align 4
  %26 = icmp ne i32 %25, 0
  br i1 %26, label %27, label %67

27:                                               ; preds = %24
  %28 = load ptr, ptr @X11_XScreenSaverQueryExtension, align 8
  %29 = load ptr, ptr %4, align 8
  %30 = getelementptr inbounds nuw %struct.SDL_VideoData, ptr %29, i32 0, i32 0
  %31 = load ptr, ptr %30, align 8
  %32 = call i32 %28(ptr noundef %31, ptr noundef %5, ptr noundef %5)
  %33 = icmp ne i32 %32, 0
  br i1 %33, label %34, label %50

34:                                               ; preds = %27
  %35 = load ptr, ptr @X11_XScreenSaverQueryVersion, align 8
  %36 = load ptr, ptr %4, align 8
  %37 = getelementptr inbounds nuw %struct.SDL_VideoData, ptr %36, i32 0, i32 0
  %38 = load ptr, ptr %37, align 8
  %39 = call i32 %35(ptr noundef %38, ptr noundef %6, ptr noundef %7)
  %40 = icmp ne i32 %39, 0
  br i1 %40, label %41, label %50

41:                                               ; preds = %34
  %42 = load i32, ptr %6, align 4
  %43 = icmp slt i32 %42, 1
  br i1 %43, label %50, label %44

44:                                               ; preds = %41
  %45 = load i32, ptr %6, align 4
  %46 = icmp eq i32 %45, 1
  br i1 %46, label %47, label %52

47:                                               ; preds = %44
  %48 = load i32, ptr %7, align 4
  %49 = icmp slt i32 %48, 1
  br i1 %49, label %50, label %52

50:                                               ; preds = %47, %41, %34, %27
  %51 = call zeroext i1 (ptr, ...) @SDL_SetError_REAL(ptr noundef @.str.2)
  store i1 %51, ptr %2, align 1
  store i32 1, ptr %8, align 4
  br label %69

52:                                               ; preds = %47, %44
  %53 = load ptr, ptr @X11_XScreenSaverSuspend, align 8
  %54 = load ptr, ptr %4, align 8
  %55 = getelementptr inbounds nuw %struct.SDL_VideoData, ptr %54, i32 0, i32 0
  %56 = load ptr, ptr %55, align 8
  %57 = load ptr, ptr %3, align 8
  %58 = getelementptr inbounds nuw %struct.SDL_VideoDevice, ptr %57, i32 0, i32 100
  %59 = load i8, ptr %58, align 2, !range !3, !noundef !4
  %60 = trunc i8 %59 to i1
  %61 = zext i1 %60 to i32
  call void %53(ptr noundef %56, i32 noundef %61)
  %62 = load ptr, ptr @X11_XResetScreenSaver, align 8
  %63 = load ptr, ptr %4, align 8
  %64 = getelementptr inbounds nuw %struct.SDL_VideoData, ptr %63, i32 0, i32 0
  %65 = load ptr, ptr %64, align 8
  %66 = call i32 %62(ptr noundef %65)
  store i1 true, ptr %2, align 1
  store i32 1, ptr %8, align 4
  br label %69

67:                                               ; preds = %24
  %68 = call zeroext i1 (ptr, ...) @SDL_SetError_REAL(ptr noundef @.str.2)
  store i1 %68, ptr %2, align 1
  store i32 1, ptr %8, align 4
  br label %69

69:                                               ; preds = %67, %52, %50, %17
  call void @llvm.lifetime.end.p0(i64 4, ptr %7) #7
  call void @llvm.lifetime.end.p0(i64 4, ptr %6) #7
  call void @llvm.lifetime.end.p0(i64 4, ptr %5) #7
  call void @llvm.lifetime.end.p0(i64 8, ptr %4) #7
  %70 = load i1, ptr %2, align 1
  ret i1 %70
}