; Function Attrs: nounwind uwtable
define hidden zeroext i1 @X11_SuspendScreenSaver(ptr noundef readonly captures(none) %0) local_unnamed_addr #1 {
  %2 = alloca i32, align 4
  %3 = alloca i32, align 4
  %4 = alloca i32, align 4
  %5 = getelementptr inbounds nuw i8, ptr %0, i64 1656
  %6 = load ptr, ptr %5, align 8
  call void @llvm.lifetime.start.p0(i64 4, ptr nonnull %2) #12
  call void @llvm.lifetime.start.p0(i64 4, ptr nonnull %3) #12
  call void @llvm.lifetime.start.p0(i64 4, ptr nonnull %4) #12
  %7 = getelementptr inbounds nuw i8, ptr %0, i64 786
  %8 = load i8, ptr %7, align 2, !range !3, !noundef !4
  %9 = trunc nuw i8 %8 to i1
  %10 = tail call zeroext i1 @SDL_DBus_ScreensaverInhibit(i1 noundef zeroext %9) #12
  br i1 %10, label %44, label %11

11:                                               ; preds = %1
  %12 = load i8, ptr %7, align 2, !range !3, !noundef !4
  %13 = trunc nuw i8 %12 to i1
  br i1 %13, label %14, label %15

14:                                               ; preds = %11
  tail call void @SDL_DBus_ScreensaverTickle() #12
  br label %15

15:                                               ; preds = %14, %11
  %16 = load i32, ptr @SDL_X11_HAVE_XSS, align 4
  %.not = icmp eq i32 %16, 0
  br i1 %.not, label %42, label %17

17:                                               ; preds = %15
  %18 = load ptr, ptr @X11_XScreenSaverQueryExtension, align 8
  %19 = load ptr, ptr %6, align 8
  %20 = call i32 %18(ptr noundef %19, ptr noundef nonnull %2, ptr noundef nonnull %2) #12
  %.not13 = icmp eq i32 %20, 0
  br i1 %.not13, label %32, label %21

21:                                               ; preds = %17
  %22 = load ptr, ptr @X11_XScreenSaverQueryVersion, align 8
  %23 = load ptr, ptr %6, align 8
  %24 = call i32 %22(ptr noundef %23, ptr noundef nonnull %3, ptr noundef nonnull %4) #12
  %25 = icmp eq i32 %24, 0
  %26 = load i32, ptr %3, align 4
  %27 = icmp slt i32 %26, 1
  %or.cond = select i1 %25, i1 true, i1 %27
  br i1 %or.cond, label %32, label %28

28:                                               ; preds = %21
  %29 = icmp eq i32 %26, 1
  %30 = load i32, ptr %4, align 4
  %31 = icmp slt i32 %30, 1
  %or.cond3 = select i1 %29, i1 %31, i1 false
  br i1 %or.cond3, label %32, label %34

32:                                               ; preds = %28, %21, %17
  %33 = call zeroext i1 (ptr, ...) @SDL_SetError_REAL(ptr noundef nonnull @.str.2) #12
  br label %44

34:                                               ; preds = %28
  %35 = load ptr, ptr @X11_XScreenSaverSuspend, align 8
  %36 = load ptr, ptr %6, align 8
  %37 = load i8, ptr %7, align 2, !range !3, !noundef !4
  %38 = zext nneg i8 %37 to i32
  call void %35(ptr noundef %36, i32 noundef %38) #12
  %39 = load ptr, ptr @X11_XResetScreenSaver, align 8
  %40 = load ptr, ptr %6, align 8
  %41 = call i32 %39(ptr noundef %40) #12
  br label %44

42:                                               ; preds = %15
  %43 = tail call zeroext i1 (ptr, ...) @SDL_SetError_REAL(ptr noundef nonnull @.str.2) #12
  br label %44

44:                                               ; preds = %1, %42, %34, %32
  %.0 = phi i1 [ %33, %32 ], [ true, %34 ], [ %43, %42 ], [ true, %1 ]
  call void @llvm.lifetime.end.p0(i64 4, ptr nonnull %4) #12
  call void @llvm.lifetime.end.p0(i64 4, ptr nonnull %3) #12
  call void @llvm.lifetime.end.p0(i64 4, ptr nonnull %2) #12
  ret i1 %.0
}